target datalayout = "e-m:e-p270:32:32-p271:32:32-p272:64:64-i64:64-i128:128-f80:128-n8:16:32:64-S128"
target triple = "x86_64-pc-linux-gnu"

%"class.sat::literal" = type { i32 }
%class.obj_ref = type { ptr, ptr }
%"struct.q::clause" = type { i32, %class.vector.324, %class.obj_ref.325, i32, %"class.sat::literal", ptr, ptr }
%class.vector.324 = type { ptr }
%class.obj_ref.325 = type { ptr, ptr }
%"struct.q::lit" = type <{ %class.obj_ref, %class.obj_ref, i8, [7 x i8] }>
%class.expr = type { %class.ast }
%class.ast = type { i32, i32, i32, i32 }
%class.app = type { %class.expr, ptr, i32, %struct.app_flags, [0 x ptr] }
%struct.app_flags = type <{ i16, i8, i8 }>

; Function Attrs: mustprogress nounwind uwtable
define linkonce_odr hidden noundef i32 @_ZNK3ast8get_kindEv(ptr noundef nonnull align 4 dereferenceable(16) %0) #5 comdat align 2 {
  %2 = alloca ptr, align 8
  store ptr %0, ptr %2, align 8, !tbaa !710
  %3 = load ptr, ptr %2, align 8
  %4 = getelementptr inbounds nuw %class.ast, ptr %3, i32 0, i32 1
  %5 = load i32, ptr %4, align 4
  %6 = and i32 %5, 65535
  ret i32 %6
}

; Function Attrs: mustprogress nounwind uwtable
define linkonce_odr hidden noundef zeroext i1 @_ZNK3app9is_groundEv(ptr noundef nonnull align 8 dereferenceable(32) %0) #5 comdat align 2 {
  %2 = alloca ptr, align 8
  store ptr %0, ptr %2, align 8, !tbaa !641
  %3 = load ptr, ptr %2, align 8
  %4 = getelementptr inbounds nuw %class.app, ptr %3, i32 0, i32 3
  %5 = getelementptr inbounds nuw %struct.app_flags, ptr %4, i32 0, i32 1
  %6 = load i8, ptr %5, align 2
  %7 = and i8 %6, 1
  %8 = zext i8 %7 to i32
  %9 = icmp ne i32 %8, 0
  ret i1 %9
}

; Function Attrs: inlinehint mustprogress nounwind uwtable
define linkonce_odr hidden noundef ptr @_Z6to_appPK3ast(ptr noundef %0) #7 comdat {
  %2 = alloca ptr, align 8
  store ptr %0, ptr %2, align 8, !tbaa !710
  %3 = load ptr, ptr %2, align 8, !tbaa !710
  ret ptr %3
}

; Function Attrs: inlinehint mustprogress uwtable
define linkonce_odr hidden noundef zeroext i1 @_Z6is_appPK3ast(ptr noundef %0) #9 comdat {
  %2 = alloca ptr, align 8
  store ptr %0, ptr %2, align 8, !tbaa !710
  %3 = load ptr, ptr %2, align 8, !tbaa !710
  %4 = call noundef i32 @_ZNK3ast8get_kindEv(ptr noundef nonnull align 4 dereferenceable(16) %3)
  %5 = icmp eq i32 %4, 0
  ret i1 %5
}

; Function Attrs: mustprogress nounwind uwtable
define linkonce_odr hidden noundef i32 @_ZNK6vectorIN1q3litELb1EjE4sizeEv(ptr noundef nonnull align 8 dereferenceable(8) %0) #5 comdat align 2 {
  %2 = alloca i32, align 4
  %3 = alloca ptr, align 8
  store ptr %0, ptr %3, align 8, !tbaa !650
  %4 = load ptr, ptr %3, align 8
  %5 = getelementptr inbounds nuw %class.vector.324, ptr %4, i32 0, i32 0
  %6 = load ptr, ptr %5, align 8, !tbaa !660
  %7 = icmp eq ptr %6, null
  br i1 %7, label %8, label %9

8:                                                ; preds = %1
  store i32 0, ptr %2, align 4
  br label %14

9:                                                ; preds = %1
  %10 = getelementptr inbounds nuw %class.vector.324, ptr %4, i32 0, i32 0
  %11 = load ptr, ptr %10, align 8, !tbaa !660
  %12 = getelementptr inbounds i32, ptr %11, i64 -1
  %13 = load i32, ptr %12, align 4, !tbaa !553
  store i32 %13, ptr %2, align 4
  br label %14

14:                                               ; preds = %9, %8
  %15 = load i32, ptr %2, align 4
  ret i32 %15
}

; Function Attrs: inlinehint mustprogress uwtable
define linkonce_odr hidden noundef zeroext i1 @_Z9is_groundPK4expr(ptr noundef %0) #9 comdat {
  %2 = alloca ptr, align 8
  store ptr %0, ptr %2, align 8, !tbaa !639
  %3 = load ptr, ptr %2, align 8, !tbaa !639
  %4 = call noundef zeroext i1 @_Z6is_appPK3ast(ptr noundef %3)
  br i1 %4, label %5, label %9

5:                                                ; preds = %1
  %6 = load ptr, ptr %2, align 8, !tbaa !639
  %7 = call noundef ptr @_Z6to_appPK3ast(ptr noundef %6)
  %8 = call noundef zeroext i1 @_ZNK3app9is_groundEv(ptr noundef nonnull align 8 dereferenceable(32) %7)
  br label %9

9:                                                ; preds = %5, %1
  %10 = phi i1 [ false, %1 ], [ %8, %5 ]
  ret i1 %10
}

; Function Attrs: mustprogress nounwind uwtable
define linkonce_odr hidden noundef ptr @_ZNK7obj_refI4expr11ast_managerEcvPS0_Ev(ptr noundef nonnull align 8 dereferenceable(16) %0) #5 comdat align 2 {
  %2 = alloca ptr, align 8
  store ptr %0, ptr %2, align 8, !tbaa !662
  %3 = load ptr, ptr %2, align 8
  %4 = getelementptr inbounds nuw %class.obj_ref, ptr %3, i32 0, i32 0
  %5 = load ptr, ptr %4, align 8, !tbaa !664
  ret ptr %5
}

; Function Attrs: mustprogress nounwind uwtable
define linkonce_odr hidden noundef ptr @_ZN6vectorIN1q3litELb1EjE3endEv(ptr noundef nonnull align 8 dereferenceable(8) %0) #5 comdat align 2 {
  %2 = alloca ptr, align 8
  store ptr %0, ptr %2, align 8, !tbaa !650
  %3 = load ptr, ptr %2, align 8
  %4 = getelementptr inbounds nuw %class.vector.324, ptr %3, i32 0, i32 0
  %5 = load ptr, ptr %4, align 8, !tbaa !660
  %6 = call noundef i32 @_ZNK6vectorIN1q3litELb1EjE4sizeEv(ptr noundef nonnull align 8 dereferenceable(8) %3)
  %7 = zext i32 %6 to i64
  %8 = getelementptr inbounds nuw %"struct.q::lit", ptr %5, i64 %7
  ret ptr %8
}

; Function Attrs: mustprogress nounwind uwtable
define linkonce_odr hidden noundef ptr @_ZN6vectorIN1q3litELb1EjE5beginEv(ptr noundef nonnull align 8 dereferenceable(8) %0) #5 comdat align 2 {
  %2 = alloca ptr, align 8
  store ptr %0, ptr %2, align 8, !tbaa !650
  %3 = load ptr, ptr %2, align 8
  %4 = getelementptr inbounds nuw %class.vector.324, ptr %3, i32 0, i32 0
  %5 = load ptr, ptr %4, align 8, !tbaa !660
  ret ptr %5
}

; Function Attrs: mustprogress nounwind uwtable
define linkonce_odr hidden noundef i32 @_ZNK1q6clause5indexEv(ptr noundef nonnull align 8 dereferenceable(56) %0) #5 comdat align 2 {
  %2 = alloca ptr, align 8
  store ptr %0, ptr %2, align 8, !tbaa !644
  %3 = load ptr, ptr %2, align 8
  %4 = getelementptr inbounds nuw %"struct.q::clause", ptr %3, i32 0, i32 0
  %5 = load i32, ptr %4, align 8, !tbaa !750
  ret i32 %5
}

; Function Attrs: mustprogress uwtable
define hidden void @_ZN1q6ematch10init_watchERNS_6clauseE(ptr noundef nonnull align 8 dereferenceable(2680) %0, ptr noundef nonnull align 8 dereferenceable(56) %1) #4 align 2 {
  %3 = alloca ptr, align 8
  %4 = alloca ptr, align 8
  %5 = alloca i32, align 4
  %6 = alloca ptr, align 8
  %7 = alloca ptr, align 8
  %8 = alloca ptr, align 8
  %9 = alloca ptr, align 8
  store ptr %0, ptr %3, align 8, !tbaa !3
  store ptr %1, ptr %4, align 8, !tbaa !644
  %10 = load ptr, ptr %3, align 8
  call void @llvm.lifetime.start.p0(i64 4, ptr %5) #3
  %11 = load ptr, ptr %4, align 8, !tbaa !644
  %12 = call noundef i32 @_ZNK1q6clause5indexEv(ptr noundef nonnull align 8 dereferenceable(56) %11)
  store i32 %12, ptr %5, align 4, !tbaa !553
  call void @llvm.lifetime.start.p0(i64 8, ptr %6) #3
  %13 = load ptr, ptr %4, align 8, !tbaa !644
  %14 = getelementptr inbounds nuw %"struct.q::clause", ptr %13, i32 0, i32 1
  store ptr %14, ptr %6, align 8, !tbaa !650
  call void @llvm.lifetime.start.p0(i64 8, ptr %7) #3
  %15 = load ptr, ptr %6, align 8, !tbaa !650
  %16 = call noundef ptr @_ZN6vectorIN1q3litELb1EjE5beginEv(ptr noundef nonnull align 8 dereferenceable(8) %15)
  store ptr %16, ptr %7, align 8, !tbaa !652
  call void @llvm.lifetime.start.p0(i64 8, ptr %8) #3
  %17 = load ptr, ptr %6, align 8, !tbaa !650
  %18 = call noundef ptr @_ZN6vectorIN1q3litELb1EjE3endEv(ptr noundef nonnull align 8 dereferenceable(8) %17)
  store ptr %18, ptr %8, align 8, !tbaa !652
  br label %19

19:                                               ; preds = %46, %2
  %20 = load ptr, ptr %7, align 8, !tbaa !652
  %21 = load ptr, ptr %8, align 8, !tbaa !652
  %22 = icmp ne ptr %20, %21
  br i1 %22, label %24, label %23

23:                                               ; preds = %19
  call void @llvm.lifetime.end.p0(i64 8, ptr %8) #3
  call void @llvm.lifetime.end.p0(i64 8, ptr %7) #3
  call void @llvm.lifetime.end.p0(i64 8, ptr %6) #3
  br label %49

24:                                               ; preds = %19
  call void @llvm.lifetime.start.p0(i64 8, ptr %9) #3
  %25 = load ptr, ptr %7, align 8, !tbaa !652
  store ptr %25, ptr %9, align 8, !tbaa !652
  %26 = load ptr, ptr %9, align 8, !tbaa !652
  %27 = getelementptr inbounds nuw %"struct.q::lit", ptr %26, i32 0, i32 0
  %28 = call noundef ptr @_ZNK7obj_refI4expr11ast_managerEcvPS0_Ev(ptr noundef nonnull align 8 dereferenceable(16) %27)
  %29 = call noundef zeroext i1 @_Z9is_groundPK4expr(ptr noundef %28)
  br i1 %29, label %35, label %30

30:                                               ; preds = %24
  %31 = load ptr, ptr %9, align 8, !tbaa !652
  %32 = getelementptr inbounds nuw %"struct.q::lit", ptr %31, i32 0, i32 0
  %33 = call noundef ptr @_ZNK7obj_refI4expr11ast_managerEcvPS0_Ev(ptr noundef nonnull align 8 dereferenceable(16) %32)
  %34 = load i32, ptr %5, align 4, !tbaa !553
  call void @_ZN1q6ematch10init_watchEP4exprj(ptr noundef nonnull align 8 dereferenceable(2680) %10, ptr noundef %33, i32 noundef %34)
  br label %35

35:                                               ; preds = %30, %24
  %36 = load ptr, ptr %9, align 8, !tbaa !652
  %37 = getelementptr inbounds nuw %"struct.q::lit", ptr %36, i32 0, i32 1
  %38 = call noundef ptr @_ZNK7obj_refI4expr11ast_managerEcvPS0_Ev(ptr noundef nonnull align 8 dereferenceable(16) %37)
  %39 = call noundef zeroext i1 @_Z9is_groundPK4expr(ptr noundef %38)
  br i1 %39, label %45, label %40

40:                                               ; preds = %35
  %41 = load ptr, ptr %9, align 8, !tbaa !652
  %42 = getelementptr inbounds nuw %"struct.q::lit", ptr %41, i32 0, i32 1
  %43 = call noundef ptr @_ZNK7obj_refI4expr11ast_managerEcvPS0_Ev(ptr noundef nonnull align 8 dereferenceable(16) %42)
  %44 = load i32, ptr %5, align 4, !tbaa !553
  call void @_ZN1q6ematch10init_watchEP4exprj(ptr noundef nonnull align 8 dereferenceable(2680) %10, ptr noundef %43, i32 noundef %44)
  br label %45

45:                                               ; preds = %40, %35
  call void @llvm.lifetime.end.p0(i64 8, ptr %9) #3
  br label %46

46:                                               ; preds = %45
  %47 = load ptr, ptr %7, align 8, !tbaa !652
  %48 = getelementptr inbounds nuw %"struct.q::lit", ptr %47, i32 1
  store ptr %48, ptr %7, align 8, !tbaa !652
  br label %19

49:                                               ; preds = %23
  call void @llvm.lifetime.end.p0(i64 4, ptr %5) #3
  ret void
}