; Function Attrs: mustprogress uwtable
define hidden void @_ZN1q6ematch10init_watchERNS_6clauseE(ptr noundef nonnull align 8 dereferenceable(2680) %0, ptr noundef nonnull readonly align 8 captures(none) dereferenceable(56) %1) local_unnamed_addr #3 align 2 {
  %3 = load i32, ptr %1, align 8, !tbaa !680
  %4 = getelementptr inbounds nuw i8, ptr %1, i64 8
  %5 = load ptr, ptr %4, align 8, !tbaa !624
  %6 = icmp eq ptr %5, null
  br i1 %6, label %._crit_edge, label %_ZN6vectorIN1q3litELb1EjE3endEv.exit

_ZN6vectorIN1q3litELb1EjE3endEv.exit:             ; preds = %2
  %7 = getelementptr inbounds i8, ptr %5, i64 -4
  %8 = load i32, ptr %7, align 4, !tbaa !586
  %9 = zext i32 %8 to i64
  %10 = getelementptr inbounds nuw %"struct.q::lit", ptr %5, i64 %9
  %.not17 = icmp eq i32 %8, 0
  br i1 %.not17, label %._crit_edge, label %.lr.ph

._crit_edge:                                      ; preds = %29, %2, %_ZN6vectorIN1q3litELb1EjE3endEv.exit
  ret void

.lr.ph:                                           ; preds = %_ZN6vectorIN1q3litELb1EjE3endEv.exit, %29
  %.018 = phi ptr [ %30, %29 ], [ %5, %_ZN6vectorIN1q3litELb1EjE3endEv.exit ]
  %11 = load ptr, ptr %.018, align 8, !tbaa !610
  %12 = getelementptr inbounds nuw i8, ptr %11, i64 4
  %13 = load i32, ptr %12, align 4
  %14 = and i32 %13, 65535
  %15 = icmp eq i32 %14, 0
  br i1 %15, label %_Z9is_groundPK4expr.exit, label %_Z9is_groundPK4expr.exit.thread

_Z9is_groundPK4expr.exit:                         ; preds = %.lr.ph
  %16 = getelementptr inbounds nuw i8, ptr %11, i64 30
  %17 = load i8, ptr %16, align 2
  %18 = and i8 %17, 1
  %.not15 = icmp eq i8 %18, 0
  br i1 %.not15, label %_Z9is_groundPK4expr.exit.thread, label %19

_Z9is_groundPK4expr.exit.thread:                  ; preds = %.lr.ph, %_Z9is_groundPK4expr.exit
  tail call void @_ZN1q6ematch10init_watchEP4exprj(ptr noundef nonnull align 8 dereferenceable(2680) %0, ptr noundef nonnull %11, i32 noundef %3)
  br label %19

19:                                               ; preds = %_Z9is_groundPK4expr.exit.thread, %_Z9is_groundPK4expr.exit
  %20 = getelementptr inbounds nuw i8, ptr %.018, i64 16
  %21 = load ptr, ptr %20, align 8, !tbaa !610
  %22 = getelementptr inbounds nuw i8, ptr %21, i64 4
  %23 = load i32, ptr %22, align 4
  %24 = and i32 %23, 65535
  %25 = icmp eq i32 %24, 0
  br i1 %25, label %_Z9is_groundPK4expr.exit14, label %_Z9is_groundPK4expr.exit14.thread

_Z9is_groundPK4expr.exit14:                       ; preds = %19
  %26 = getelementptr inbounds nuw i8, ptr %21, i64 30
  %27 = load i8, ptr %26, align 2
  %28 = and i8 %27, 1
  %.not16 = icmp eq i8 %28, 0
  br i1 %.not16, label %_Z9is_groundPK4expr.exit14.thread, label %29

_Z9is_groundPK4expr.exit14.thread:                ; preds = %19, %_Z9is_groundPK4expr.exit14
  tail call void @_ZN1q6ematch10init_watchEP4exprj(ptr noundef nonnull align 8 dereferenceable(2680) %0, ptr noundef nonnull %21, i32 noundef %3)
  br label %29

29:                                               ; preds = %_Z9is_groundPK4expr.exit14.thread, %_Z9is_groundPK4expr.exit14
  %30 = getelementptr inbounds nuw i8, ptr %.018, i64 40
  %.not = icmp eq ptr %30, %10
  br i1 %.not, label %._crit_edge, label %.lr.ph
}